; Function Attrs: mustprogress nounwind uwtable
define dso_local void @_ZNSt3__119__shared_weak_count16__release_sharedEv(ptr noundef nonnull align 8 dereferenceable(24) %0) local_unnamed_addr #1 align 2 personality ptr @__gxx_personality_v0 {
  %2 = getelementptr inbounds nuw i8, ptr %0, i64 8
  %3 = atomicrmw add ptr %2, i64 -1 acq_rel, align 8
  %4 = icmp eq i64 %3, 0
  br i1 %4, label %5, label %_ZNSt3__114__shared_count16__release_sharedEv.exit

5:                                                ; preds = %1
  %6 = load ptr, ptr %0, align 8, !tbaa !5
  %7 = getelementptr inbounds nuw i8, ptr %6, i64 16
  %8 = load ptr, ptr %7, align 8
  tail call void %8(ptr noundef nonnull align 8 dereferenceable(16) %0) #12
  %9 = getelementptr inbounds nuw i8, ptr %0, i64 16
  %10 = load atomic i64, ptr %9 acquire, align 8
  %11 = icmp eq i64 %10, 0
  br i1 %11, label %.sink.split.i, label %12

12:                                               ; preds = %5
  %13 = atomicrmw add ptr %9, i64 -1 acq_rel, align 8
  %14 = icmp eq i64 %13, 0
  br i1 %14, label %.sink.split.i, label %_ZNSt3__114__shared_count16__release_sharedEv.exit

.sink.split.i:                                    ; preds = %12, %5
  %15 = load ptr, ptr %0, align 8, !tbaa !5
  %16 = getelementptr inbounds nuw i8, ptr %15, i64 32
  %17 = load ptr, ptr %16, align 8
  tail call void %17(ptr noundef nonnull align 8 dereferenceable(24) %0) #12
  br label %_ZNSt3__114__shared_count16__release_sharedEv.exit

_ZNSt3__114__shared_count16__release_sharedEv.exit: ; preds = %.sink.split.i, %12, %1
  ret void
}